target datalayout = "e-m:e-p270:32:32-p271:32:32-p272:64:64-i64:64-i128:128-f80:128-n8:16:32:64-S128"
target triple = "x86_64-pc-linux-gnu"

%struct._packet_info = type { ptr, ptr, i32, i32, %struct.nstime_t, %struct.nstime_t, %struct.nstime_t, i8, ptr, ptr, ptr, ptr, %struct._address, %struct._address, %struct._address, %struct._address, %struct._address, %struct._address, i32, ptr, i8, [3 x i8], %struct.anon, i32, i32, i32, i32, ptr, i8, ptr, ptr, i16, i16, i32, i32, i16, i32, i32, ptr, ptr, ptr, i8, i8, i16, i16, i16, i32, i16, i16, ptr, ptr, ptr, ptr, ptr, i32, i32 }
%struct.nstime_t = type { i64, i32 }
%struct._address = type { i32, i32, ptr, ptr }
%struct.anon = type { i8, [3 x i8] }
%struct._frame_data = type <{ i32, i32, i32, i32, i32, [4 x i8], i64, ptr, ptr, ptr, i8, i16, [5 x i8], %struct.nstime_t, %struct.nstime_t, i32, i32 }>
%struct._proto_data = type { i32, i32, ptr }
%struct._GSList = type { ptr, ptr }

@.str = private unnamed_addr constant [29 x i8] c"%s:%u: failed assertion \22%s\22\00", align 1
@.str.1 = private unnamed_addr constant [18 x i8] c"epan/proto_data.c\00", align 1
@.str.2 = private unnamed_addr constant [22 x i8] c"!\22invalid wmem scope\22\00", align 1

; Function Attrs: null_pointer_is_valid sspstrong uwtable
define void @p_add_proto_data(ptr noundef %0, ptr noundef %1, i32 noundef %2, i32 noundef %3, ptr noundef %4) #0 {
  %6 = alloca ptr, align 8
  %7 = alloca ptr, align 8
  %8 = alloca i32, align 4
  %9 = alloca i32, align 4
  %10 = alloca ptr, align 8
  %11 = alloca ptr, align 8
  %12 = alloca ptr, align 8
  %13 = alloca ptr, align 8
  store ptr %0, ptr %6, align 8
  store ptr %1, ptr %7, align 8
  store i32 %2, ptr %8, align 4
  store i32 %3, ptr %9, align 4
  store ptr %4, ptr %10, align 8
  call void @llvm.lifetime.start.p0(i64 8, ptr %11) #6
  call void @llvm.lifetime.start.p0(i64 8, ptr %12) #6
  call void @llvm.lifetime.start.p0(i64 8, ptr %13) #6
  %14 = load ptr, ptr %6, align 8
  %15 = load ptr, ptr %7, align 8
  %16 = getelementptr inbounds nuw %struct._packet_info, ptr %15, i32 0, i32 51
  %17 = load ptr, ptr %16, align 8
  %18 = icmp eq ptr %14, %17
  br i1 %18, label %19, label %23

19:                                               ; preds = %5
  %20 = load ptr, ptr %6, align 8
  store ptr %20, ptr %13, align 8
  %21 = load ptr, ptr %7, align 8
  %22 = getelementptr inbounds nuw %struct._packet_info, ptr %21, i32 0, i32 49
  store ptr %22, ptr %12, align 8
  br label %35

23:                                               ; preds = %5
  %24 = load ptr, ptr %6, align 8
  %25 = call ptr @wmem_file_scope()
  %26 = icmp eq ptr %24, %25
  br i1 %26, label %27, label %33

27:                                               ; preds = %23
  %28 = call ptr @wmem_file_scope()
  store ptr %28, ptr %13, align 8
  %29 = load ptr, ptr %7, align 8
  %30 = getelementptr inbounds nuw %struct._packet_info, ptr %29, i32 0, i32 8
  %31 = load ptr, ptr %30, align 8
  %32 = getelementptr inbounds nuw %struct._frame_data, ptr %31, i32 0, i32 7
  store ptr %32, ptr %12, align 8
  br label %34

33:                                               ; preds = %23
  call void (ptr, ...) @proto_report_dissector_bug(ptr noundef @.str, ptr noundef @.str.1, i32 noundef 63, ptr noundef @.str.2) #7
  unreachable

34:                                               ; preds = %27
  br label %35

35:                                               ; preds = %34, %19
  %36 = load ptr, ptr %13, align 8
  %37 = call noalias ptr @wmem_alloc(ptr noundef %36, i64 noundef 16) #8
  store ptr %37, ptr %11, align 8
  %38 = load i32, ptr %8, align 4
  %39 = load ptr, ptr %11, align 8
  %40 = getelementptr inbounds nuw %struct._proto_data, ptr %39, i32 0, i32 0
  store i32 %38, ptr %40, align 8
  %41 = load i32, ptr %9, align 4
  %42 = load ptr, ptr %11, align 8
  %43 = getelementptr inbounds nuw %struct._proto_data, ptr %42, i32 0, i32 1
  store i32 %41, ptr %43, align 4
  %44 = load ptr, ptr %10, align 8
  %45 = load ptr, ptr %11, align 8
  %46 = getelementptr inbounds nuw %struct._proto_data, ptr %45, i32 0, i32 2
  store ptr %44, ptr %46, align 8
  %47 = load ptr, ptr %12, align 8
  %48 = load ptr, ptr %47, align 8
  %49 = load ptr, ptr %11, align 8
  %50 = call ptr @g_slist_prepend(ptr noundef %48, ptr noundef %49)
  %51 = load ptr, ptr %12, align 8
  store ptr %50, ptr %51, align 8
  call void @llvm.lifetime.end.p0(i64 8, ptr %13) #6
  call void @llvm.lifetime.end.p0(i64 8, ptr %12) #6
  call void @llvm.lifetime.end.p0(i64 8, ptr %11) #6
  ret void
}

; Function Attrs: null_pointer_is_valid sspstrong uwtable
define void @p_set_proto_data(ptr noundef %0, ptr noundef %1, i32 noundef %2, i32 noundef %3, ptr noundef %4) #0 {
  %6 = alloca ptr, align 8
  %7 = alloca ptr, align 8
  %8 = alloca i32, align 4
  %9 = alloca i32, align 4
  %10 = alloca ptr, align 8
  %11 = alloca %struct._proto_data, align 8
  %12 = alloca ptr, align 8
  %13 = alloca ptr, align 8
  %14 = alloca i32, align 4
  store ptr %0, ptr %6, align 8
  store ptr %1, ptr %7, align 8
  store i32 %2, ptr %8, align 4
  store i32 %3, ptr %9, align 4
  store ptr %4, ptr %10, align 8
  call void @llvm.lifetime.start.p0(i64 16, ptr %11) #6
  call void @llvm.lifetime.start.p0(i64 8, ptr %12) #6
  %15 = load i32, ptr %8, align 4
  %16 = getelementptr inbounds nuw %struct._proto_data, ptr %11, i32 0, i32 0
  store i32 %15, ptr %16, align 8
  %17 = load i32, ptr %9, align 4
  %18 = getelementptr inbounds nuw %struct._proto_data, ptr %11, i32 0, i32 1
  store i32 %17, ptr %18, align 4
  %19 = getelementptr inbounds nuw %struct._proto_data, ptr %11, i32 0, i32 2
  store ptr null, ptr %19, align 8
  %20 = load ptr, ptr %6, align 8
  %21 = load ptr, ptr %7, align 8
  %22 = getelementptr inbounds nuw %struct._packet_info, ptr %21, i32 0, i32 51
  %23 = load ptr, ptr %22, align 8
  %24 = icmp eq ptr %20, %23
  br i1 %24, label %25, label %30

25:                                               ; preds = %5
  %26 = load ptr, ptr %7, align 8
  %27 = getelementptr inbounds nuw %struct._packet_info, ptr %26, i32 0, i32 49
  %28 = load ptr, ptr %27, align 8
  %29 = call ptr @g_slist_find_custom(ptr noundef %28, ptr noundef %11, ptr noundef @p_compare)
  store ptr %29, ptr %12, align 8
  br label %43

30:                                               ; preds = %5
  %31 = load ptr, ptr %6, align 8
  %32 = call ptr @wmem_file_scope()
  %33 = icmp eq ptr %31, %32
  br i1 %33, label %34, label %41

34:                                               ; preds = %30
  %35 = load ptr, ptr %7, align 8
  %36 = getelementptr inbounds nuw %struct._packet_info, ptr %35, i32 0, i32 8
  %37 = load ptr, ptr %36, align 8
  %38 = getelementptr inbounds nuw %struct._frame_data, ptr %37, i32 0, i32 7
  %39 = load ptr, ptr %38, align 8
  %40 = call ptr @g_slist_find_custom(ptr noundef %39, ptr noundef %11, ptr noundef @p_compare)
  store ptr %40, ptr %12, align 8
  br label %42

41:                                               ; preds = %30
  call void (ptr, ...) @proto_report_dissector_bug(ptr noundef @.str, ptr noundef @.str.1, i32 noundef 91, ptr noundef @.str.2) #7
  unreachable

42:                                               ; preds = %34
  br label %43

43:                                               ; preds = %42, %25
  %44 = load ptr, ptr %12, align 8
  %45 = icmp ne ptr %44, null
  br i1 %45, label %46, label %53

46:                                               ; preds = %43
  call void @llvm.lifetime.start.p0(i64 8, ptr %13) #6
  %47 = load ptr, ptr %12, align 8
  %48 = getelementptr inbounds nuw %struct._GSList, ptr %47, i32 0, i32 0
  %49 = load ptr, ptr %48, align 8
  store ptr %49, ptr %13, align 8
  %50 = load ptr, ptr %10, align 8
  %51 = load ptr, ptr %13, align 8
  %52 = getelementptr inbounds nuw %struct._proto_data, ptr %51, i32 0, i32 2
  store ptr %50, ptr %52, align 8
  store i32 1, ptr %14, align 4
  call void @llvm.lifetime.end.p0(i64 8, ptr %13) #6
  br label %59

53:                                               ; preds = %43
  %54 = load ptr, ptr %6, align 8
  %55 = load ptr, ptr %7, align 8
  %56 = load i32, ptr %8, align 4
  %57 = load i32, ptr %9, align 4
  %58 = load ptr, ptr %10, align 8
  call void @p_add_proto_data(ptr noundef %54, ptr noundef %55, i32 noundef %56, i32 noundef %57, ptr noundef %58)
  store i32 0, ptr %14, align 4
  br label %59

59:                                               ; preds = %53, %46
  call void @llvm.lifetime.end.p0(i64 8, ptr %12) #6
  call void @llvm.lifetime.end.p0(i64 16, ptr %11) #6
  %60 = load i32, ptr %14, align 4
  switch i32 %60, label %62 [
    i32 0, label %61
    i32 1, label %61
  ]

61:                                               ; preds = %59, %59
  ret void

62:                                               ; preds = %59
  unreachable
}