; Function Attrs: null_pointer_is_valid sspstrong uwtable
define void @p_set_proto_data(ptr noundef %0, ptr noundef captures(none) %1, i32 noundef %2, i32 noundef %3, ptr noundef %4) local_unnamed_addr #0 {
  %6 = alloca %struct._proto_data, align 8
  call void @llvm.lifetime.start.p0(i64 16, ptr nonnull %6) #8
  store i32 %2, ptr %6, align 8
  %7 = getelementptr inbounds nuw i8, ptr %6, i64 4
  store i32 %3, ptr %7, align 4
  %8 = getelementptr inbounds nuw i8, ptr %6, i64 8
  store ptr null, ptr %8, align 8
  %9 = getelementptr inbounds nuw i8, ptr %1, i64 408
  %10 = load ptr, ptr %9, align 8
  %11 = icmp eq ptr %0, %10
  br i1 %11, label %12, label %14

12:                                               ; preds = %5
  %13 = getelementptr inbounds nuw i8, ptr %1, i64 392
  br label %22

14:                                               ; preds = %5
  %15 = tail call ptr @wmem_file_scope()
  %16 = icmp eq ptr %0, %15
  br i1 %16, label %17, label %21

17:                                               ; preds = %14
  %18 = getelementptr inbounds nuw i8, ptr %1, i64 80
  %19 = load ptr, ptr %18, align 8
  %20 = getelementptr inbounds nuw i8, ptr %19, i64 32
  br label %22

21:                                               ; preds = %14
  tail call void (ptr, ...) @proto_report_dissector_bug(ptr noundef nonnull @.str, ptr noundef nonnull @.str.1, i32 noundef 91, ptr noundef nonnull @.str.2) #6
  unreachable

22:                                               ; preds = %17, %12
  %.sink.in = phi ptr [ %20, %17 ], [ %13, %12 ]
  %.sink = load ptr, ptr %.sink.in, align 8
  %23 = call ptr @g_slist_find_custom(ptr noundef %.sink, ptr noundef nonnull %6, ptr noundef nonnull @p_compare)
  %.not = icmp eq ptr %23, null
  br i1 %.not, label %27, label %24

24:                                               ; preds = %22
  %25 = load ptr, ptr %23, align 8
  %26 = getelementptr inbounds nuw i8, ptr %25, i64 8
  store ptr %4, ptr %26, align 8
  br label %46

27:                                               ; preds = %22
  %28 = load ptr, ptr %9, align 8
  %29 = icmp eq ptr %0, %28
  br i1 %29, label %30, label %32

30:                                               ; preds = %27
  %31 = getelementptr inbounds nuw i8, ptr %1, i64 392
  br label %p_add_proto_data.exit

32:                                               ; preds = %27
  %33 = call ptr @wmem_file_scope()
  %34 = icmp eq ptr %0, %33
  br i1 %34, label %35, label %40

35:                                               ; preds = %32
  %36 = call ptr @wmem_file_scope()
  %37 = getelementptr inbounds nuw i8, ptr %1, i64 80
  %38 = load ptr, ptr %37, align 8
  %39 = getelementptr inbounds nuw i8, ptr %38, i64 32
  br label %p_add_proto_data.exit

40:                                               ; preds = %32
  call void (ptr, ...) @proto_report_dissector_bug(ptr noundef nonnull @.str, ptr noundef nonnull @.str.1, i32 noundef 63, ptr noundef nonnull @.str.2) #6
  unreachable

p_add_proto_data.exit:                            ; preds = %30, %35
  %.015.i = phi ptr [ %31, %30 ], [ %39, %35 ]
  %.0.i = phi ptr [ %0, %30 ], [ %36, %35 ]
  %41 = call noalias dereferenceable_or_null(16) ptr @wmem_alloc(ptr noundef %.0.i, i64 noundef 16) #7
  store i32 %2, ptr %41, align 8
  %42 = getelementptr inbounds nuw i8, ptr %41, i64 4
  store i32 %3, ptr %42, align 4
  %43 = getelementptr inbounds nuw i8, ptr %41, i64 8
  store ptr %4, ptr %43, align 8
  %44 = load ptr, ptr %.015.i, align 8
  %45 = call ptr @g_slist_prepend(ptr noundef %44, ptr noundef %41)
  store ptr %45, ptr %.015.i, align 8
  br label %46

46:                                               ; preds = %p_add_proto_data.exit, %24
  call void @llvm.lifetime.end.p0(i64 16, ptr nonnull %6) #8
  ret void
}